; ModuleID = '51/482.c'
source_filename = "51/482.c"
target datalayout = "e-m:e-p270:32:32-p271:32:32-p272:64:64-i64:64-f80:128-n8:16:32:64-S128"
target triple = "x86_64-pc-linux-gnu"

@.str = private unnamed_addr constant [3 x i8] c"%d\00", align 1
@.str.1 = private unnamed_addr constant [3 x i8] c"%s\00", align 1
@.str.2 = private unnamed_addr constant [4 x i8] c"NO\0A\00", align 1
@.str.3 = private unnamed_addr constant [4 x i8] c"%d\0A\00", align 1
@.str.4 = private unnamed_addr constant [4 x i8] c"%s\0A\00", align 1

; Function Attrs: noinline nounwind uwtable
define dso_local i32 @main() #0 {
  %1 = alloca i32, align 4
  %2 = alloca [2000 x i8], align 16
  %3 = alloca [2000 x [20 x i8]], align 16
  %4 = alloca i32, align 4
  %5 = alloca i32, align 4
  %6 = alloca i32, align 4
  %7 = alloca [2000 x i32], align 16
  %8 = alloca i32, align 4
  store i32 0, i32* %1, align 4
  %9 = bitcast [2000 x i8]* %2 to i8*
  call void @llvm.memset.p0i8.i64(i8* align 16 %9, i8 0, i64 2000, i1 false)
  %10 = bitcast [2000 x [20 x i8]]* %3 to i8*
  call void @llvm.memset.p0i8.i64(i8* align 16 %10, i8 0, i64 40000, i1 false)
  %11 = bitcast [2000 x i32]* %7 to i8*
  call void @llvm.memset.p0i8.i64(i8* align 16 %11, i8 0, i64 8000, i1 false)
  %12 = bitcast i8* %11 to <{ i32, [1999 x i32] }>*
  %13 = getelementptr inbounds <{ i32, [1999 x i32] }>, <{ i32, [1999 x i32] }>* %12, i32 0, i32 0
  store i32 1, i32* %13, align 16
  store i32 0, i32* %8, align 4
  %14 = call i32 (i8*, ...) @__isoc99_scanf(i8* getelementptr inbounds ([3 x i8], [3 x i8]* @.str, i64 0, i64 0), i32* %4)
  %15 = getelementptr inbounds [2000 x i8], [2000 x i8]* %2, i64 0, i64 0
  %16 = call i32 (i8*, ...) @__isoc99_scanf(i8* getelementptr inbounds ([3 x i8], [3 x i8]* @.str.1, i64 0, i64 0), i8* %15)
  store i32 0, i32* %5, align 4
  br label %17

17:                                               ; preds = %49, %0
  %18 = load i32, i32* %5, align 4
  %19 = load i32, i32* %4, align 4
  %20 = add nsw i32 %18, %19
  %21 = sub nsw i32 %20, 1
  %22 = sext i32 %21 to i64
  %23 = getelementptr inbounds [2000 x i8], [2000 x i8]* %2, i64 0, i64 %22
  %24 = load i8, i8* %23, align 1
  %25 = sext i8 %24 to i32
  %26 = icmp ne i32 %25, 0
  br i1 %26, label %27, label %52

27:                                               ; preds = %17
  store i32 0, i32* %6, align 4
  br label %28

28:                                               ; preds = %45, %27
  %29 = load i32, i32* %6, align 4
  %30 = load i32, i32* %4, align 4
  %31 = icmp slt i32 %29, %30
  br i1 %31, label %32, label %48

32:                                               ; preds = %28
  %33 = load i32, i32* %5, align 4
  %34 = load i32, i32* %6, align 4
  %35 = add nsw i32 %33, %34
  %36 = sext i32 %35 to i64
  %37 = getelementptr inbounds [2000 x i8], [2000 x i8]* %2, i64 0, i64 %36
  %38 = load i8, i8* %37, align 1
  %39 = load i32, i32* %5, align 4
  %40 = sext i32 %39 to i64
  %41 = getelementptr inbounds [2000 x [20 x i8]], [2000 x [20 x i8]]* %3, i64 0, i64 %40
  %42 = load i32, i32* %6, align 4
  %43 = sext i32 %42 to i64
  %44 = getelementptr inbounds [20 x i8], [20 x i8]* %41, i64 0, i64 %43
  store i8 %38, i8* %44, align 1
  br label %45

45:                                               ; preds = %32
  %46 = load i32, i32* %6, align 4
  %47 = add nsw i32 %46, 1
  store i32 %47, i32* %6, align 4
  br label %28

48:                                               ; preds = %28
  br label %49

49:                                               ; preds = %48
  %50 = load i32, i32* %5, align 4
  %51 = add nsw i32 %50, 1
  store i32 %51, i32* %5, align 4
  br label %17

52:                                               ; preds = %17
  store i32 1, i32* %5, align 4
  br label %53

53:                                               ; preds = %99, %52
  %54 = load i32, i32* %5, align 4
  %55 = sext i32 %54 to i64
  %56 = getelementptr inbounds [2000 x [20 x i8]], [2000 x [20 x i8]]* %3, i64 0, i64 %55
  %57 = getelementptr inbounds [20 x i8], [20 x i8]* %56, i64 0, i64 0
  %58 = load i8, i8* %57, align 4
  %59 = sext i8 %58 to i32
  %60 = icmp ne i32 %59, 0
  br i1 %60, label %61, label %102

61:                                               ; preds = %53
  store i32 0, i32* %6, align 4
  br label %62

62:                                               ; preds = %95, %61
  %63 = load i32, i32* %6, align 4
  %64 = load i32, i32* %5, align 4
  %65 = icmp slt i32 %63, %64
  br i1 %65, label %66, label %98

66:                                               ; preds = %62
  %67 = load i32, i32* %5, align 4
  %68 = sext i32 %67 to i64
  %69 = getelementptr inbounds [2000 x [20 x i8]], [2000 x [20 x i8]]* %3, i64 0, i64 %68
  %70 = getelementptr inbounds [20 x i8], [20 x i8]* %69, i64 0, i64 0
  %71 = load i32, i32* %6, align 4
  %72 = sext i32 %71 to i64
  %73 = getelementptr inbounds [2000 x [20 x i8]], [2000 x [20 x i8]]* %3, i64 0, i64 %72
  %74 = getelementptr inbounds [20 x i8], [20 x i8]* %73, i64 0, i64 0
  %75 = call i32 @strcmp(i8* %70, i8* %74) #4
  %76 = icmp ne i32 %75, 0
  br i1 %76, label %83, label %77

77:                                               ; preds = %66
  %78 = load i32, i32* %6, align 4
  %79 = sext i32 %78 to i64
  %80 = getelementptr inbounds [2000 x i32], [2000 x i32]* %7, i64 0, i64 %79
  %81 = load i32, i32* %80, align 4
  %82 = add nsw i32 %81, 1
  store i32 %82, i32* %80, align 4
  br label %98

83:                                               ; preds = %66
  %84 = load i32, i32* %6, align 4
  %85 = load i32, i32* %5, align 4
  %86 = sub nsw i32 %85, 1
  %87 = icmp eq i32 %84, %86
  br i1 %87, label %88, label %94

88:                                               ; preds = %83
  %89 = load i32, i32* %5, align 4
  %90 = sext i32 %89 to i64
  %91 = getelementptr inbounds [2000 x i32], [2000 x i32]* %7, i64 0, i64 %90
  %92 = load i32, i32* %91, align 4
  %93 = add nsw i32 %92, 1
  store i32 %93, i32* %91, align 4
  br label %94

94:                                               ; preds = %88, %83
  br label %95

95:                                               ; preds = %94
  %96 = load i32, i32* %6, align 4
  %97 = add nsw i32 %96, 1
  store i32 %97, i32* %6, align 4
  br label %62

98:                                               ; preds = %77, %62
  br label %99

99:                                               ; preds = %98
  %100 = load i32, i32* %5, align 4
  %101 = add nsw i32 %100, 1
  store i32 %101, i32* %5, align 4
  br label %53

102:                                              ; preds = %53
  store i32 0, i32* %5, align 4
  br label %103

103:                                              ; preds = %124, %102
  %104 = load i32, i32* %5, align 4
  %105 = sext i32 %104 to i64
  %106 = getelementptr inbounds [2000 x [20 x i8]], [2000 x [20 x i8]]* %3, i64 0, i64 %105
  %107 = getelementptr inbounds [20 x i8], [20 x i8]* %106, i64 0, i64 0
  %108 = load i8, i8* %107, align 4
  %109 = sext i8 %108 to i32
  %110 = icmp ne i32 %109, 0
  br i1 %110, label %111, label %127

111:                                              ; preds = %103
  %112 = load i32, i32* %5, align 4
  %113 = sext i32 %112 to i64
  %114 = getelementptr inbounds [2000 x i32], [2000 x i32]* %7, i64 0, i64 %113
  %115 = load i32, i32* %114, align 4
  %116 = load i32, i32* %8, align 4
  %117 = icmp sgt i32 %115, %116
  br i1 %117, label %118, label %123

118:                                              ; preds = %111
  %119 = load i32, i32* %5, align 4
  %120 = sext i32 %119 to i64
  %121 = getelementptr inbounds [2000 x i32], [2000 x i32]* %7, i64 0, i64 %120
  %122 = load i32, i32* %121, align 4
  store i32 %122, i32* %8, align 4
  br label %123

123:                                              ; preds = %118, %111
  br label %124

124:                                              ; preds = %123
  %125 = load i32, i32* %5, align 4
  %126 = add nsw i32 %125, 1
  store i32 %126, i32* %5, align 4
  br label %103

127:                                              ; preds = %103
  %128 = load i32, i32* %8, align 4
  %129 = icmp eq i32 %128, 1
  br i1 %129, label %130, label %132

130:                                              ; preds = %127
  %131 = call i32 (i8*, ...) @printf(i8* getelementptr inbounds ([4 x i8], [4 x i8]* @.str.2, i64 0, i64 0))
  br label %161

132:                                              ; preds = %127
  %133 = load i32, i32* %8, align 4
  %134 = call i32 (i8*, ...) @printf(i8* getelementptr inbounds ([4 x i8], [4 x i8]* @.str.3, i64 0, i64 0), i32 %133)
  store i32 0, i32* %5, align 4
  br label %135

135:                                              ; preds = %157, %132
  %136 = load i32, i32* %5, align 4
  %137 = sext i32 %136 to i64
  %138 = getelementptr inbounds [2000 x [20 x i8]], [2000 x [20 x i8]]* %3, i64 0, i64 %137
  %139 = getelementptr inbounds [20 x i8], [20 x i8]* %138, i64 0, i64 0
  %140 = load i8, i8* %139, align 4
  %141 = sext i8 %140 to i32
  %142 = icmp ne i32 %141, 0
  br i1 %142, label %143, label %160

143:                                              ; preds = %135
  %144 = load i32, i32* %5, align 4
  %145 = sext i32 %144 to i64
  %146 = getelementptr inbounds [2000 x i32], [2000 x i32]* %7, i64 0, i64 %145
  %147 = load i32, i32* %146, align 4
  %148 = load i32, i32* %8, align 4
  %149 = icmp eq i32 %147, %148
  br i1 %149, label %150, label %156

150:                                              ; preds = %143
  %151 = load i32, i32* %5, align 4
  %152 = sext i32 %151 to i64
  %153 = getelementptr inbounds [2000 x [20 x i8]], [2000 x [20 x i8]]* %3, i64 0, i64 %152
  %154 = getelementptr inbounds [20 x i8], [20 x i8]* %153, i64 0, i64 0
  %155 = call i32 (i8*, ...) @printf(i8* getelementptr inbounds ([4 x i8], [4 x i8]* @.str.4, i64 0, i64 0), i8* %154)
  br label %156

156:                                              ; preds = %150, %143
  br label %157

157:                                              ; preds = %156
  %158 = load i32, i32* %5, align 4
  %159 = add nsw i32 %158, 1
  store i32 %159, i32* %5, align 4
  br label %135

160:                                              ; preds = %135
  br label %161

161:                                              ; preds = %160, %130
  ret i32 0
}

; Function Attrs: argmemonly nounwind willreturn
declare void @llvm.memset.p0i8.i64(i8* nocapture writeonly, i8, i64, i1 immarg) #1

declare dso_local i32 @__isoc99_scanf(i8*, ...) #2

; Function Attrs: nounwind readonly
declare dso_local i32 @strcmp(i8*, i8*) #3

declare dso_local i32 @printf(i8*, ...) #2


!llvm.module.flags = !{!0}
!llvm.ident = !{!1}

!0 = !{i32 1, !"wchar_size", i32 4}
!1 = !{!"clang version 10.0.0-4ubuntu1 "}
